target datalayout = "e-m:e-p270:32:32-p271:32:32-p272:64:64-i64:64-i128:128-f80:128-n8:16:32:64-S128"
target triple = "x86_64-pc-linux-gnu"

; Function Attrs: nounwind uwtable
define internal void @lumRangeToJpeg16_c(ptr noundef %0, i32 noundef %1, i32 noundef %2, i64 noundef %3) #0 {
  %5 = alloca ptr, align 8
  %6 = alloca i32, align 4
  %7 = alloca i32, align 4
  %8 = alloca i64, align 8
  %9 = alloca i32, align 4
  %10 = alloca ptr, align 8
  %11 = alloca i32, align 4
  store ptr %0, ptr %5, align 8, !tbaa !104
  store i32 %1, ptr %6, align 4, !tbaa !14
  store i32 %2, ptr %7, align 4, !tbaa !14
  store i64 %3, ptr %8, align 8, !tbaa !105
  call void @llvm.lifetime.start.p0(i64 4, ptr %9) #11
  call void @llvm.lifetime.start.p0(i64 8, ptr %10) #11
  %12 = load ptr, ptr %5, align 8, !tbaa !104
  store ptr %12, ptr %10, align 8, !tbaa !12
  store i32 0, ptr %9, align 4, !tbaa !14
  br label %13

13:                                               ; preds = %42, %4
  %14 = load i32, ptr %9, align 4, !tbaa !14
  %15 = load i32, ptr %6, align 4, !tbaa !14
  %16 = icmp slt i32 %14, %15
  br i1 %16, label %17, label %45

17:                                               ; preds = %13
  call void @llvm.lifetime.start.p0(i64 4, ptr %11) #11
  %18 = load ptr, ptr %10, align 8, !tbaa !12
  %19 = load i32, ptr %9, align 4, !tbaa !14
  %20 = sext i32 %19 to i64
  %21 = getelementptr inbounds i32, ptr %18, i64 %20
  %22 = load i32, ptr %21, align 4, !tbaa !14
  %23 = sext i32 %22 to i64
  %24 = load i32, ptr %7, align 4, !tbaa !14
  %25 = zext i32 %24 to i64
  %26 = mul nsw i64 %23, %25
  %27 = load i64, ptr %8, align 8, !tbaa !105
  %28 = add nsw i64 %26, %27
  %29 = ashr i64 %28, 18
  %30 = trunc i64 %29 to i32
  store i32 %30, ptr %11, align 4, !tbaa !14
  %31 = load i32, ptr %11, align 4, !tbaa !14
  %32 = icmp sgt i32 %31, 524287
  br i1 %32, label %33, label %34

33:                                               ; preds = %17
  br label %36

34:                                               ; preds = %17
  %35 = load i32, ptr %11, align 4, !tbaa !14
  br label %36

36:                                               ; preds = %34, %33
  %37 = phi i32 [ 524287, %33 ], [ %35, %34 ]
  %38 = load ptr, ptr %10, align 8, !tbaa !12
  %39 = load i32, ptr %9, align 4, !tbaa !14
  %40 = sext i32 %39 to i64
  %41 = getelementptr inbounds i32, ptr %38, i64 %40
  store i32 %37, ptr %41, align 4, !tbaa !14
  call void @llvm.lifetime.end.p0(i64 4, ptr %11) #11
  br label %42

42:                                               ; preds = %36
  %43 = load i32, ptr %9, align 4, !tbaa !14
  %44 = add nsw i32 %43, 1
  store i32 %44, ptr %9, align 4, !tbaa !14
  br label %13, !llvm.loop !112

45:                                               ; preds = %13
  call void @llvm.lifetime.end.p0(i64 8, ptr %10) #11
  call void @llvm.lifetime.end.p0(i64 4, ptr %9) #11
  ret void
}