; Function Attrs: nofree norecurse nosync nounwind memory(argmem: readwrite) uwtable
define internal void @lumRangeToJpeg16_c(ptr noundef captures(none) %0, i32 noundef %1, i32 noundef %2, i64 noundef %3) #6 {
  %5 = icmp sgt i32 %1, 0
  br i1 %5, label %.lr.ph, label %._crit_edge

.lr.ph:                                           ; preds = %4
  %6 = zext i32 %2 to i64
  %wide.trip.count = zext nneg i32 %1 to i64
  br label %7

7:                                                ; preds = %.lr.ph, %7
  %indvars.iv = phi i64 [ 0, %.lr.ph ], [ %indvars.iv.next, %7 ]
  %8 = getelementptr inbounds nuw i32, ptr %0, i64 %indvars.iv
  %9 = load i32, ptr %8, align 4, !tbaa !49
  %10 = sext i32 %9 to i64
  %11 = mul nsw i64 %10, %6
  %12 = add nsw i64 %11, %3
  %13 = lshr i64 %12, 18
  %14 = trunc i64 %13 to i32
  %15 = tail call i32 @llvm.smin.i32(i32 %14, i32 524287)
  store i32 %15, ptr %8, align 4, !tbaa !49
  %indvars.iv.next = add nuw nsw i64 %indvars.iv, 1
  %exitcond.not = icmp eq i64 %indvars.iv.next, %wide.trip.count
  br i1 %exitcond.not, label %._crit_edge, label %7, !llvm.loop !102

._crit_edge:                                      ; preds = %7, %4
  ret void
}